target datalayout = "e-m:e-p270:32:32-p271:32:32-p272:64:64-i64:64-i128:128-f80:128-n8:16:32:64-S128"
target triple = "x86_64-unknown-linux-gnu"

%"struct.folly::None" = type { i8 }
%"struct.folly::unsafe_default_initialized_cv" = type { i8 }
%"class.folly::Optional" = type { %"struct.folly::Optional<proxygen::HTTP3::ErrorCode>::StorageTriviallyDestructible" }
%"struct.folly::Optional<proxygen::HTTP3::ErrorCode>::StorageTriviallyDestructible" = type <{ %union.anon, i8, [7 x i8] }>
%union.anon = type { i64 }
%"class.proxygen::hq::HQControlCodec" = type { %"class.proxygen::hq::HQUnidirectionalCodec.base", [15 x i8], %"class.proxygen::hq::HQFramedCodec", i8, i8, i8, i8, i8, i64, i64, i64, ptr, [8 x i8] }
%"class.proxygen::hq::HQUnidirectionalCodec.base" = type <{ ptr, i64, i8 }>
%"class.proxygen::hq::HQFramedCodec" = type { %"class.proxygen::HTTPCodec", i64, i8, ptr, %"struct.proxygen::hq::FrameHeader", i8, i8, i64, i8, [7 x i8], %"class.folly::Optional", i64, %"class.folly::Function" }
%"class.proxygen::HTTPCodec" = type { ptr }
%"struct.proxygen::hq::FrameHeader" = type { i64, i64 }
%"class.folly::Function" = type { %"union.folly::detail::function::Data", ptr, ptr }
%"union.folly::detail::function::Data" = type { ptr, [40 x i8] }
%"class.proxygen::hq::HQUnidirectionalCodec" = type <{ ptr, i64, i8, [7 x i8] }>

@_ZN5follyL4noneE = internal constant %"struct.folly::None" undef, align 1
@_ZN5folly26unsafe_default_initializedE = linkonce_odr constant %"struct.folly::unsafe_default_initialized_cv" undef, comdat, align 1

; Function Attrs: noreturn nounwind uwtable
define linkonce_odr hidden void @__clang_call_terminate(ptr noundef %0) #8 comdat {
  %2 = call ptr @__cxa_begin_catch(ptr %0) #3
  call void @_ZSt9terminatev() #17
  unreachable
}

; Function Attrs: mustprogress nounwind uwtable
define linkonce_odr void @_ZN5folly8OptionalIN8proxygen5HTTP39ErrorCodeEE9constructIJS3_EEEvDpOT_(ptr noundef nonnull align 8 dereferenceable(16) %this, ptr noundef nonnull align 8 dereferenceable(8) %args) #5 comdat align 2 {
entry:
  %this.addr = alloca ptr, align 8
  %args.addr = alloca ptr, align 8
  %ptr = alloca ptr, align 8
  store ptr %this, ptr %this.addr, align 8
  store ptr %args, ptr %args.addr, align 8
  %this1 = load ptr, ptr %this.addr, align 8
  %storage_ = getelementptr inbounds %"class.folly::Optional", ptr %this1, i32 0, i32 0
  %0 = getelementptr inbounds %"struct.folly::Optional<proxygen::HTTP3::ErrorCode>::StorageTriviallyDestructible", ptr %storage_, i32 0, i32 0
  store ptr %0, ptr %ptr, align 8
  %1 = load ptr, ptr %ptr, align 8
  %2 = load ptr, ptr %args.addr, align 8
  %3 = load i64, ptr %2, align 8
  store i64 %3, ptr %1, align 8
  %storage_2 = getelementptr inbounds %"class.folly::Optional", ptr %this1, i32 0, i32 0
  %hasValue = getelementptr inbounds %"struct.folly::Optional<proxygen::HTTP3::ErrorCode>::StorageTriviallyDestructible", ptr %storage_2, i32 0, i32 1
  store i8 1, ptr %hasValue, align 8
  ret void
}

; Function Attrs: mustprogress nounwind uwtable
define linkonce_odr void @_ZN5folly8OptionalIN8proxygen5HTTP39ErrorCodeEE28StorageTriviallyDestructibleC2Ev(ptr noundef nonnull align 8 dereferenceable(9) %this) unnamed_addr #5 comdat align 2 {
entry:
  %this.addr.i = alloca ptr, align 8
  %this.addr = alloca ptr, align 8
  store ptr %this, ptr %this.addr, align 8
  %this1 = load ptr, ptr %this.addr, align 8
  %0 = getelementptr inbounds %"struct.folly::Optional<proxygen::HTTP3::ErrorCode>::StorageTriviallyDestructible", ptr %this1, i32 0, i32 0
  store ptr @_ZN5folly26unsafe_default_initializedE, ptr %this.addr.i, align 8
  store i8 0, ptr %0, align 8
  %hasValue = getelementptr inbounds %"struct.folly::Optional<proxygen::HTTP3::ErrorCode>::StorageTriviallyDestructible", ptr %this1, i32 0, i32 1
  store i8 0, ptr %hasValue, align 8
  ret void
}

; Function Attrs: mustprogress nounwind uwtable
define linkonce_odr void @_ZN5folly8OptionalIN8proxygen5HTTP39ErrorCodeEEC2ERKNS_4NoneE(ptr noundef nonnull align 8 dereferenceable(16) %this, ptr noundef nonnull align 1 dereferenceable(1) %0) unnamed_addr #5 comdat align 2 personality ptr @__gxx_personality_v0 {
entry:
  %this.addr = alloca ptr, align 8
  %.addr = alloca ptr, align 8
  store ptr %this, ptr %this.addr, align 8
  store ptr %0, ptr %.addr, align 8
  %this1 = load ptr, ptr %this.addr, align 8
  %storage_ = getelementptr inbounds %"class.folly::Optional", ptr %this1, i32 0, i32 0
  invoke void @_ZN5folly8OptionalIN8proxygen5HTTP39ErrorCodeEE28StorageTriviallyDestructibleC2Ev(ptr noundef nonnull align 8 dereferenceable(9) %storage_)
          to label %invoke.cont unwind label %terminate.lpad

invoke.cont:                                      ; preds = %entry
  ret void

terminate.lpad:                                   ; preds = %entry
  %1 = landingpad { ptr, i32 }
          catch ptr null
  %2 = extractvalue { ptr, i32 } %1, 0
  call void @__clang_call_terminate(ptr %2) #17
  unreachable
}

; Function Attrs: mustprogress nounwind uwtable
define linkonce_odr noundef i64 @_ZNK8proxygen2hq21HQUnidirectionalCodec13getStreamTypeEv(ptr noundef nonnull align 8 dereferenceable(17) %this) #5 comdat align 2 {
entry:
  %this.addr = alloca ptr, align 8
  store ptr %this, ptr %this.addr, align 8
  %this1 = load ptr, ptr %this.addr, align 8
  %streamType_ = getelementptr inbounds %"class.proxygen::hq::HQUnidirectionalCodec", ptr %this1, i32 0, i32 1
  %0 = load i64, ptr %streamType_, align 8
  ret i64 %0
}

; Function Attrs: mustprogress nounwind uwtable
define linkonce_odr void @_ZN5folly8OptionalIN8proxygen5HTTP39ErrorCodeEEC2EOS3_(ptr noundef nonnull align 8 dereferenceable(16) %this, ptr noundef nonnull align 8 dereferenceable(8) %newValue) unnamed_addr #5 comdat align 2 personality ptr @__gxx_personality_v0 {
entry:
  %this.addr = alloca ptr, align 8
  %newValue.addr = alloca ptr, align 8
  store ptr %this, ptr %this.addr, align 8
  store ptr %newValue, ptr %newValue.addr, align 8
  %this1 = load ptr, ptr %this.addr, align 8
  %storage_ = getelementptr inbounds %"class.folly::Optional", ptr %this1, i32 0, i32 0
  invoke void @_ZN5folly8OptionalIN8proxygen5HTTP39ErrorCodeEE28StorageTriviallyDestructibleC2Ev(ptr noundef nonnull align 8 dereferenceable(9) %storage_)
          to label %invoke.cont unwind label %terminate.lpad

invoke.cont:                                      ; preds = %entry
  %0 = load ptr, ptr %newValue.addr, align 8
  invoke void @_ZN5folly8OptionalIN8proxygen5HTTP39ErrorCodeEE9constructIJS3_EEEvDpOT_(ptr noundef nonnull align 8 dereferenceable(16) %this1, ptr noundef nonnull align 8 dereferenceable(8) %0)
          to label %invoke.cont2 unwind label %terminate.lpad

invoke.cont2:                                     ; preds = %invoke.cont
  ret void

terminate.lpad:                                   ; preds = %invoke.cont, %entry
  %1 = landingpad { ptr, i32 }
          catch ptr null
  %2 = extractvalue { ptr, i32 } %1, 0
  call void @__clang_call_terminate(ptr %2) #17
  unreachable
}

; Function Attrs: mustprogress uwtable
define void @_ZN8proxygen2hq14HQControlCodec17checkFrameAllowedENS0_9FrameTypeE(ptr noalias sret(%"class.folly::Optional") align 8 %agg.result, ptr noundef nonnull align 16 dereferenceable(232) %this, i64 noundef %type) unnamed_addr #4 align 2 {
entry:
  %result.ptr = alloca ptr, align 8
  %this.addr = alloca ptr, align 8
  %type.addr = alloca i64, align 8
  %ref.tmp = alloca i64, align 8
  %ref.tmp4 = alloca i64, align 8
  %ref.tmp10 = alloca i64, align 8
  %ref.tmp16 = alloca i64, align 8
  %ref.tmp29 = alloca i64, align 8
  store ptr %agg.result, ptr %result.ptr, align 8
  store ptr %this, ptr %this.addr, align 8
  store i64 %type, ptr %type.addr, align 8
  %this1 = load ptr, ptr %this.addr, align 8
  %0 = load i64, ptr %type.addr, align 8
  switch i64 %0, label %sw.default [
    i64 0, label %sw.bb
    i64 1, label %sw.bb
    i64 5, label %sw.bb
    i64 65, label %sw.bb
  ]

sw.bb:                                            ; preds = %entry, %entry, %entry, %entry
  store i64 261, ptr %ref.tmp, align 8
  call void @_ZN5folly8OptionalIN8proxygen5HTTP39ErrorCodeEEC2EOS3_(ptr noundef nonnull align 8 dereferenceable(16) %agg.result, ptr noundef nonnull align 8 dereferenceable(8) %ref.tmp) #3
  br label %return

sw.default:                                       ; preds = %entry
  br label %sw.epilog

sw.epilog:                                        ; preds = %sw.default
  %call = call noundef i64 @_ZNK8proxygen2hq21HQUnidirectionalCodec13getStreamTypeEv(ptr noundef nonnull align 8 dereferenceable(17) %this1)
  %cmp = icmp eq i64 %call, 0
  br i1 %cmp, label %if.then, label %if.end31

if.then:                                          ; preds = %sw.epilog
  %receivedSettings_ = getelementptr inbounds %"class.proxygen::hq::HQControlCodec", ptr %this1, i32 0, i32 6
  %1 = load i8, ptr %receivedSettings_, align 1
  %tobool = trunc i8 %1 to i1
  br i1 %tobool, label %if.end, label %land.lhs.true

land.lhs.true:                                    ; preds = %if.then
  %2 = load i64, ptr %type.addr, align 8
  %cmp2 = icmp ne i64 %2, 4
  br i1 %cmp2, label %if.then3, label %if.end

if.then3:                                         ; preds = %land.lhs.true
  store i64 266, ptr %ref.tmp4, align 8
  call void @_ZN5folly8OptionalIN8proxygen5HTTP39ErrorCodeEEC2EOS3_(ptr noundef nonnull align 8 dereferenceable(16) %agg.result, ptr noundef nonnull align 8 dereferenceable(8) %ref.tmp4) #3
  br label %return

if.end:                                           ; preds = %land.lhs.true, %if.then
  %receivedSettings_5 = getelementptr inbounds %"class.proxygen::hq::HQControlCodec", ptr %this1, i32 0, i32 6
  %3 = load i8, ptr %receivedSettings_5, align 1
  %tobool6 = trunc i8 %3 to i1
  br i1 %tobool6, label %land.lhs.true7, label %if.end11

land.lhs.true7:                                   ; preds = %if.end
  %4 = load i64, ptr %type.addr, align 8
  %cmp8 = icmp eq i64 %4, 4
  br i1 %cmp8, label %if.then9, label %if.end11

if.then9:                                         ; preds = %land.lhs.true7
  store i64 261, ptr %ref.tmp10, align 8
  call void @_ZN5folly8OptionalIN8proxygen5HTTP39ErrorCodeEEC2EOS3_(ptr noundef nonnull align 8 dereferenceable(16) %agg.result, ptr noundef nonnull align 8 dereferenceable(8) %ref.tmp10) #3
  br label %return

if.end11:                                         ; preds = %land.lhs.true7, %if.end
  %add.ptr = getelementptr inbounds i8, ptr %this1, i64 32
  %transportDirection_ = getelementptr inbounds %"class.proxygen::hq::HQFramedCodec", ptr %add.ptr, i32 0, i32 2
  %5 = load i8, ptr %transportDirection_, align 16
  %cmp12 = icmp eq i8 %5, 1
  br i1 %cmp12, label %land.lhs.true13, label %if.end17

land.lhs.true13:                                  ; preds = %if.end11
  %6 = load i64, ptr %type.addr, align 8
  %cmp14 = icmp eq i64 %6, 13
  br i1 %cmp14, label %if.then15, label %if.end17

if.then15:                                        ; preds = %land.lhs.true13
  store i64 261, ptr %ref.tmp16, align 8
  call void @_ZN5folly8OptionalIN8proxygen5HTTP39ErrorCodeEEC2EOS3_(ptr noundef nonnull align 8 dereferenceable(16) %agg.result, ptr noundef nonnull align 8 dereferenceable(8) %ref.tmp16) #3
  br label %return

if.end17:                                         ; preds = %land.lhs.true13, %if.end11
  %add.ptr18 = getelementptr inbounds i8, ptr %this1, i64 32
  %transportDirection_19 = getelementptr inbounds %"class.proxygen::hq::HQFramedCodec", ptr %add.ptr18, i32 0, i32 2
  %7 = load i8, ptr %transportDirection_19, align 16
  %cmp20 = icmp eq i8 %7, 1
  br i1 %cmp20, label %land.lhs.true21, label %if.end30

land.lhs.true21:                                  ; preds = %if.end17
  %8 = load i64, ptr %type.addr, align 8
  %cmp22 = icmp eq i64 %8, 984832
  br i1 %cmp22, label %if.then28, label %lor.lhs.false

lor.lhs.false:                                    ; preds = %land.lhs.true21
  %9 = load i64, ptr %type.addr, align 8
  %cmp23 = icmp eq i64 %9, 984833
  br i1 %cmp23, label %if.then28, label %lor.lhs.false24

lor.lhs.false24:                                  ; preds = %lor.lhs.false
  %10 = load i64, ptr %type.addr, align 8
  %cmp25 = icmp eq i64 %10, 63233
  br i1 %cmp25, label %if.then28, label %lor.lhs.false26

lor.lhs.false26:                                  ; preds = %lor.lhs.false24
  %11 = load i64, ptr %type.addr, align 8
  %cmp27 = icmp eq i64 %11, 63232
  br i1 %cmp27, label %if.then28, label %if.end30

if.then28:                                        ; preds = %lor.lhs.false26, %lor.lhs.false24, %lor.lhs.false, %land.lhs.true21
  store i64 261, ptr %ref.tmp29, align 8
  call void @_ZN5folly8OptionalIN8proxygen5HTTP39ErrorCodeEEC2EOS3_(ptr noundef nonnull align 8 dereferenceable(16) %agg.result, ptr noundef nonnull align 8 dereferenceable(8) %ref.tmp29) #3
  br label %return

if.end30:                                         ; preds = %lor.lhs.false26, %if.end17
  br label %if.end31

if.end31:                                         ; preds = %if.end30, %sw.epilog
  call void @_ZN5folly8OptionalIN8proxygen5HTTP39ErrorCodeEEC2ERKNS_4NoneE(ptr noundef nonnull align 8 dereferenceable(16) %agg.result, ptr noundef nonnull align 1 dereferenceable(1) @_ZN5follyL4noneE) #3
  br label %return

return:                                           ; preds = %if.end31, %if.then28, %if.then15, %if.then9, %if.then3, %sw.bb
  ret void
}

; Function Attrs: uwtable
define void @_ZThn32_N8proxygen2hq14HQControlCodec17checkFrameAllowedENS0_9FrameTypeE(ptr noalias sret(%"class.folly::Optional") align 8 %agg.result, ptr noundef %this, i64 noundef %type) unnamed_addr #0 align 2 {
entry:
  %result.ptr = alloca ptr, align 8
  %this.addr = alloca ptr, align 8
  %type.addr = alloca i64, align 8
  store ptr %agg.result, ptr %result.ptr, align 8
  store ptr %this, ptr %this.addr, align 8
  store i64 %type, ptr %type.addr, align 8
  %this1 = load ptr, ptr %this.addr, align 8
  %0 = getelementptr inbounds i8, ptr %this1, i64 -32
  %1 = load i64, ptr %type.addr, align 8
  tail call void @_ZN8proxygen2hq14HQControlCodec17checkFrameAllowedENS0_9FrameTypeE(ptr sret(%"class.folly::Optional") align 8 %agg.result, ptr noundef nonnull align 16 dereferenceable(232) %0, i64 noundef %1)
  ret void
}