; Function Attrs: mustprogress nofree norecurse nosync nounwind willreturn memory(argmem: readwrite, inaccessiblemem: readwrite) uwtable
define void @_ZThn32_N8proxygen2hq14HQControlCodec17checkFrameAllowedENS0_9FrameTypeE(ptr noalias nocapture writeonly sret(%"class.folly::Optional") align 8 %agg.result, ptr nocapture noundef readonly %this, i64 noundef %type) unnamed_addr #4 align 2 personality ptr @__gxx_personality_v0 {
entry:
  tail call void @llvm.experimental.noalias.scope.decl(metadata !4)
  switch i64 %type, label %sw.epilog.i [
    i64 0, label %sw.bb.i
    i64 1, label %sw.bb.i
    i64 5, label %sw.bb.i
    i64 65, label %sw.bb.i
  ]

sw.bb.i:                                          ; preds = %entry, %entry, %entry, %entry
  %hasValue.i.i.i = getelementptr inbounds i8, ptr %agg.result, i64 8
  store i64 261, ptr %agg.result, align 8, !alias.scope !4
  store i8 1, ptr %hasValue.i.i.i, align 8, !alias.scope !4
  br label %_ZN8proxygen2hq14HQControlCodec17checkFrameAllowedENS0_9FrameTypeE.exit

sw.epilog.i:                                      ; preds = %entry
  %streamType_.i.i = getelementptr inbounds i8, ptr %this, i64 -24
  %0 = load i64, ptr %streamType_.i.i, align 8, !noalias !4
  %cmp.i = icmp eq i64 %0, 0
  br i1 %cmp.i, label %if.then.i, label %if.end31.i

if.then.i:                                        ; preds = %sw.epilog.i
  %receivedSettings_.i = getelementptr inbounds i8, ptr %this, i64 163
  %1 = load i8, ptr %receivedSettings_.i, align 1, !noalias !4
  %2 = and i8 %1, 1
  %tobool.i = icmp ne i8 %2, 0
  %cmp2.i = icmp eq i64 %type, 4
  %or.cond.not.i = or i1 %cmp2.i, %tobool.i
  br i1 %or.cond.not.i, label %if.end.i, label %if.then3.i

if.then3.i:                                       ; preds = %if.then.i
  %hasValue.i.i13.i = getelementptr inbounds i8, ptr %agg.result, i64 8
  store i64 266, ptr %agg.result, align 8, !alias.scope !4
  store i8 1, ptr %hasValue.i.i13.i, align 8, !alias.scope !4
  br label %_ZN8proxygen2hq14HQControlCodec17checkFrameAllowedENS0_9FrameTypeE.exit

if.end.i:                                         ; preds = %if.then.i
  %or.cond1.i = and i1 %cmp2.i, %tobool.i
  br i1 %or.cond1.i, label %if.then9.i, label %if.end11.i

if.then9.i:                                       ; preds = %if.end.i
  %hasValue.i.i14.i = getelementptr inbounds i8, ptr %agg.result, i64 8
  store i64 261, ptr %agg.result, align 8, !alias.scope !4
  store i8 1, ptr %hasValue.i.i14.i, align 8, !alias.scope !4
  br label %_ZN8proxygen2hq14HQControlCodec17checkFrameAllowedENS0_9FrameTypeE.exit

if.end11.i:                                       ; preds = %if.end.i
  %transportDirection_.i = getelementptr inbounds i8, ptr %this, i64 16
  %3 = load i8, ptr %transportDirection_.i, align 16, !noalias !4
  %cmp12.i = icmp eq i8 %3, 1
  %cmp14.i = icmp eq i64 %type, 13
  %or.cond2.i = and i1 %cmp14.i, %cmp12.i
  br i1 %or.cond2.i, label %if.then15.i, label %if.end17.i

if.then15.i:                                      ; preds = %if.end11.i
  %hasValue.i.i15.i = getelementptr inbounds i8, ptr %agg.result, i64 8
  store i64 261, ptr %agg.result, align 8, !alias.scope !4
  store i8 1, ptr %hasValue.i.i15.i, align 8, !alias.scope !4
  br label %_ZN8proxygen2hq14HQControlCodec17checkFrameAllowedENS0_9FrameTypeE.exit

if.end17.i:                                       ; preds = %if.end11.i
  br i1 %cmp12.i, label %land.lhs.true21.i, label %if.end31.i

land.lhs.true21.i:                                ; preds = %if.end17.i
  switch i64 %type, label %if.end31.i [
    i64 984833, label %if.then28.i
    i64 984832, label %if.then28.i
    i64 63233, label %if.then28.i
    i64 63232, label %if.then28.i
  ]

if.then28.i:                                      ; preds = %land.lhs.true21.i, %land.lhs.true21.i, %land.lhs.true21.i, %land.lhs.true21.i
  %hasValue.i.i16.i = getelementptr inbounds i8, ptr %agg.result, i64 8
  store i64 261, ptr %agg.result, align 8, !alias.scope !4
  store i8 1, ptr %hasValue.i.i16.i, align 8, !alias.scope !4
  br label %_ZN8proxygen2hq14HQControlCodec17checkFrameAllowedENS0_9FrameTypeE.exit

if.end31.i:                                       ; preds = %land.lhs.true21.i, %if.end17.i, %sw.epilog.i
  store i8 0, ptr %agg.result, align 8, !alias.scope !4
  %hasValue.i.i17.i = getelementptr inbounds i8, ptr %agg.result, i64 8
  store i8 0, ptr %hasValue.i.i17.i, align 8, !alias.scope !4
  br label %_ZN8proxygen2hq14HQControlCodec17checkFrameAllowedENS0_9FrameTypeE.exit

_ZN8proxygen2hq14HQControlCodec17checkFrameAllowedENS0_9FrameTypeE.exit: ; preds = %sw.bb.i, %if.then3.i, %if.then9.i, %if.then15.i, %if.then28.i, %if.end31.i
  ret void
}